target datalayout = "e-m:e-p270:32:32-p271:32:32-p272:64:64-i64:64-i128:128-f80:128-n8:16:32:64-S128"
target triple = "x86_64-pc-linux-gnu"

%struct.Resampler = type { ptr, ptr, ptr, ptr, ptr, ptr, ptr, ptr }
%struct.SwrContext = type { ptr, i32, ptr, i32, i32, i32, %struct.AVChannelLayout, %struct.AVChannelLayout, %struct.AVChannelLayout, i32, i32, i32, float, float, float, float, float, i32, ptr, i32, %struct.AVChannelLayout, %struct.AVChannelLayout, %struct.AVChannelLayout, i32, i32, %struct.DitherContext, i32, i32, i32, i32, double, i32, double, double, i32, float, float, float, float, float, i64, i32, i32, i32, %struct.AudioData, %struct.AudioData, %struct.AudioData, %struct.AudioData, %struct.AudioData, %struct.AudioData, %struct.AudioData, %struct.AudioData, i32, i32, i32, i32, i64, i64, i32, double, ptr, ptr, ptr, ptr, ptr, [64 x [64 x double]], [64 x [64 x float]], ptr, ptr, ptr, ptr, [64 x [64 x i32]], [64 x [65 x i8]], ptr, ptr, ptr, ptr, ptr }
%struct.AVChannelLayout = type { i32, i32, %union.anon, ptr }
%union.anon = type { i64 }
%struct.DitherContext = type { i32, i32, float, float, i32, float, float, i32, [20 x float], [64 x [40 x float]], %struct.AudioData, %struct.AudioData, i32 }
%struct.AudioData = type { [64 x ptr], ptr, i32, i32, i32, i32, i32 }

; Function Attrs: nounwind uwtable
define i64 @swr_get_delay(ptr noundef %0, i64 noundef %1) #0 {
  %3 = alloca i64, align 8
  %4 = alloca ptr, align 8
  %5 = alloca i64, align 8
  store ptr %0, ptr %4, align 8, !tbaa !4
  store i64 %1, ptr %5, align 8, !tbaa !137
  %6 = load ptr, ptr %4, align 8, !tbaa !4
  %7 = getelementptr inbounds nuw %struct.SwrContext, ptr %6, i32 0, i32 64
  %8 = load ptr, ptr %7, align 8, !tbaa !35
  %9 = icmp ne ptr %8, null
  br i1 %9, label %10, label %24

10:                                               ; preds = %2
  %11 = load ptr, ptr %4, align 8, !tbaa !4
  %12 = getelementptr inbounds nuw %struct.SwrContext, ptr %11, i32 0, i32 63
  %13 = load ptr, ptr %12, align 8, !tbaa !72
  %14 = icmp ne ptr %13, null
  br i1 %14, label %15, label %24

15:                                               ; preds = %10
  %16 = load ptr, ptr %4, align 8, !tbaa !4
  %17 = getelementptr inbounds nuw %struct.SwrContext, ptr %16, i32 0, i32 64
  %18 = load ptr, ptr %17, align 8, !tbaa !35
  %19 = getelementptr inbounds nuw %struct.Resampler, ptr %18, i32 0, i32 5
  %20 = load ptr, ptr %19, align 8, !tbaa !138
  %21 = load ptr, ptr %4, align 8, !tbaa !4
  %22 = load i64, ptr %5, align 8, !tbaa !137
  %23 = call i64 %20(ptr noundef %21, i64 noundef %22)
  store i64 %23, ptr %3, align 8
  br label %42

24:                                               ; preds = %10, %2
  %25 = load ptr, ptr %4, align 8, !tbaa !4
  %26 = getelementptr inbounds nuw %struct.SwrContext, ptr %25, i32 0, i32 53
  %27 = load i32, ptr %26, align 4, !tbaa !39
  %28 = sext i32 %27 to i64
  %29 = load i64, ptr %5, align 8, !tbaa !137
  %30 = mul nsw i64 %28, %29
  %31 = load ptr, ptr %4, align 8, !tbaa !4
  %32 = getelementptr inbounds nuw %struct.SwrContext, ptr %31, i32 0, i32 9
  %33 = load i32, ptr %32, align 8, !tbaa !45
  %34 = ashr i32 %33, 1
  %35 = sext i32 %34 to i64
  %36 = add nsw i64 %30, %35
  %37 = load ptr, ptr %4, align 8, !tbaa !4
  %38 = getelementptr inbounds nuw %struct.SwrContext, ptr %37, i32 0, i32 9
  %39 = load i32, ptr %38, align 8, !tbaa !45
  %40 = sext i32 %39 to i64
  %41 = sdiv i64 %36, %40
  store i64 %41, ptr %3, align 8
  br label %42

42:                                               ; preds = %24, %15
  %43 = load i64, ptr %3, align 8
  ret i64 %43
}