; Function Attrs: nounwind uwtable
define i64 @swr_get_delay(ptr noundef %0, i64 noundef %1) local_unnamed_addr #1 {
  %3 = getelementptr inbounds nuw i8, ptr %0, i64 16224
  %4 = load ptr, ptr %3, align 8, !tbaa !27
  %.not = icmp eq ptr %4, null
  br i1 %.not, label %12, label %5

5:                                                ; preds = %2
  %6 = getelementptr inbounds nuw i8, ptr %0, i64 16216
  %7 = load ptr, ptr %6, align 8, !tbaa !65
  %.not10 = icmp eq ptr %7, null
  br i1 %.not10, label %12, label %8

8:                                                ; preds = %5
  %9 = getelementptr inbounds nuw i8, ptr %4, i64 40
  %10 = load ptr, ptr %9, align 8, !tbaa !126
  %11 = tail call i64 %10(ptr noundef nonnull %0, i64 noundef %1) #12
  br label %24

12:                                               ; preds = %5, %2
  %13 = getelementptr inbounds nuw i8, ptr %0, i64 16148
  %14 = load i32, ptr %13, align 4, !tbaa !31
  %15 = sext i32 %14 to i64
  %16 = mul nsw i64 %1, %15
  %17 = getelementptr inbounds nuw i8, ptr %0, i64 112
  %18 = load i32, ptr %17, align 8, !tbaa !38
  %19 = ashr i32 %18, 1
  %20 = sext i32 %19 to i64
  %21 = add nsw i64 %16, %20
  %22 = sext i32 %18 to i64
  %23 = sdiv i64 %21, %22
  br label %24

24:                                               ; preds = %12, %8
  %.0 = phi i64 [ %11, %8 ], [ %23, %12 ]
  ret i64 %.0
}